target datalayout = "e-m:e-p270:32:32-p271:32:32-p272:64:64-i64:64-i128:128-f80:128-n8:16:32:64-S128"
target triple = "x86_64-unknown-linux-gnu"

%"class.Assimp::MD5Importer" = type <{ %"class.Assimp::BaseImporter", ptr, %"class.std::__cxx11::basic_string", ptr, i32, i32, ptr, i8, i8, i8, i8, [4 x i8] }>
%"class.Assimp::BaseImporter" = type { ptr, double, double, %"class.std::__cxx11::basic_string", %"class.std::__exception_ptr::exception_ptr", ptr }
%"class.std::__exception_ptr::exception_ptr" = type { ptr }
%"class.std::__cxx11::basic_string" = type { %"struct.std::__cxx11::basic_string<char>::_Alloc_hider", i64, %union.anon }
%"struct.std::__cxx11::basic_string<char>::_Alloc_hider" = type { ptr }
%union.anon = type { i64, [8 x i8] }

@.str.7 = private unnamed_addr constant [3 x i8] c"//\00", align 1

; Function Attrs: mustprogress nounwind uwtable
define hidden void @_ZN6Assimp11MD5Importer20UnloadFileFromMemoryEv(ptr noundef nonnull align 8 dereferenceable(140) %this) #0 align 2 {
entry:
  %this.addr = alloca ptr, align 8
  store ptr %this, ptr %this.addr, align 8
  %this1 = load ptr, ptr %this.addr, align 8
  %mBuffer = getelementptr inbounds %"class.Assimp::MD5Importer", ptr %this1, i32 0, i32 3
  %0 = load ptr, ptr %mBuffer, align 8
  %isnull = icmp eq ptr %0, null
  br i1 %isnull, label %delete.end, label %delete.notnull

delete.notnull:                                   ; preds = %entry
  call void @_ZdaPv(ptr noundef %0) #18
  br label %delete.end

delete.end:                                       ; preds = %delete.notnull, %entry
  %mBuffer2 = getelementptr inbounds %"class.Assimp::MD5Importer", ptr %this1, i32 0, i32 3
  store ptr null, ptr %mBuffer2, align 8
  %mFileSize = getelementptr inbounds %"class.Assimp::MD5Importer", ptr %this1, i32 0, i32 4
  store i32 0, ptr %mFileSize, align 8
  ret void
}

; Function Attrs: mustprogress uwtable
define hidden void @_ZN6Assimp11MD5Importer18LoadFileIntoMemoryEPNS_8IOStreamE(ptr noundef nonnull align 8 dereferenceable(140) %this, ptr noundef %file) #3 align 2 {
entry:
  %this.addr = alloca ptr, align 8
  %file.addr = alloca ptr, align 8
  store ptr %this, ptr %this.addr, align 8
  store ptr %file, ptr %file.addr, align 8
  %this1 = load ptr, ptr %this.addr, align 8
  call void @_ZN6Assimp11MD5Importer20UnloadFileFromMemoryEv(ptr noundef nonnull align 8 dereferenceable(140) %this1)
  %0 = load ptr, ptr %file.addr, align 8
  %vtable = load ptr, ptr %0, align 8
  %vfn = getelementptr inbounds ptr, ptr %vtable, i64 6
  %1 = load ptr, ptr %vfn, align 8
  %call = call noundef i64 %1(ptr noundef nonnull align 8 dereferenceable(8) %0)
  %conv = trunc i64 %call to i32
  %mFileSize = getelementptr inbounds %"class.Assimp::MD5Importer", ptr %this1, i32 0, i32 4
  store i32 %conv, ptr %mFileSize, align 8
  %mFileSize2 = getelementptr inbounds %"class.Assimp::MD5Importer", ptr %this1, i32 0, i32 4
  %2 = load i32, ptr %mFileSize2, align 8
  %add = add i32 %2, 1
  %conv3 = zext i32 %add to i64
  %call4 = call noalias noundef nonnull ptr @_Znam(i64 noundef %conv3) #17
  %mBuffer = getelementptr inbounds %"class.Assimp::MD5Importer", ptr %this1, i32 0, i32 3
  store ptr %call4, ptr %mBuffer, align 8
  %3 = load ptr, ptr %file.addr, align 8
  %mBuffer5 = getelementptr inbounds %"class.Assimp::MD5Importer", ptr %this1, i32 0, i32 3
  %4 = load ptr, ptr %mBuffer5, align 8
  %mFileSize6 = getelementptr inbounds %"class.Assimp::MD5Importer", ptr %this1, i32 0, i32 4
  %5 = load i32, ptr %mFileSize6, align 8
  %conv7 = zext i32 %5 to i64
  %vtable8 = load ptr, ptr %3, align 8
  %vfn9 = getelementptr inbounds ptr, ptr %vtable8, i64 2
  %6 = load ptr, ptr %vfn9, align 8
  %call10 = call noundef i64 %6(ptr noundef nonnull align 8 dereferenceable(8) %3, ptr noundef %4, i64 noundef 1, i64 noundef %conv7)
  %mLineNumber = getelementptr inbounds %"class.Assimp::MD5Importer", ptr %this1, i32 0, i32 5
  store i32 1, ptr %mLineNumber, align 4
  %mBuffer11 = getelementptr inbounds %"class.Assimp::MD5Importer", ptr %this1, i32 0, i32 3
  %7 = load ptr, ptr %mBuffer11, align 8
  %mFileSize12 = getelementptr inbounds %"class.Assimp::MD5Importer", ptr %this1, i32 0, i32 4
  %8 = load i32, ptr %mFileSize12, align 8
  %idxprom = zext i32 %8 to i64
  %arrayidx = getelementptr inbounds i8, ptr %7, i64 %idxprom
  store i8 0, ptr %arrayidx, align 1
  %mBuffer13 = getelementptr inbounds %"class.Assimp::MD5Importer", ptr %this1, i32 0, i32 3
  %9 = load ptr, ptr %mBuffer13, align 8
  call void @_ZN6Assimp14CommentRemover18RemoveLineCommentsEPKcPcc(ptr noundef @.str.7, ptr noundef %9, i8 noundef signext 32)
  ret void
}