; Function Attrs: mustprogress uwtable
define hidden void @_ZN6Assimp11MD5Importer18LoadFileIntoMemoryEPNS_8IOStreamE(ptr nocapture noundef nonnull align 8 dereferenceable(140) %this, ptr noundef %file) local_unnamed_addr #2 align 2 {
entry:
  %mBuffer.i = getelementptr inbounds i8, ptr %this, i64 112
  %0 = load ptr, ptr %mBuffer.i, align 8
  %isnull.i = icmp eq ptr %0, null
  br i1 %isnull.i, label %_ZN6Assimp11MD5Importer20UnloadFileFromMemoryEv.exit, label %delete.notnull.i

delete.notnull.i:                                 ; preds = %entry
  tail call void @_ZdaPv(ptr noundef nonnull %0) #22
  br label %_ZN6Assimp11MD5Importer20UnloadFileFromMemoryEv.exit

_ZN6Assimp11MD5Importer20UnloadFileFromMemoryEv.exit: ; preds = %entry, %delete.notnull.i
  store ptr null, ptr %mBuffer.i, align 8
  %mFileSize.i = getelementptr inbounds i8, ptr %this, i64 120
  store i32 0, ptr %mFileSize.i, align 8
  %vtable = load ptr, ptr %file, align 8
  %vfn = getelementptr inbounds i8, ptr %vtable, i64 48
  %1 = load ptr, ptr %vfn, align 8
  %call = tail call noundef i64 %1(ptr noundef nonnull align 8 dereferenceable(8) %file)
  %conv = trunc i64 %call to i32
  store i32 %conv, ptr %mFileSize.i, align 8
  %add = add i64 %call, 1
  %conv3 = and i64 %add, 4294967295
  %call4 = tail call noalias noundef nonnull ptr @_Znam(i64 noundef %conv3) #24
  store ptr %call4, ptr %mBuffer.i, align 8
  %conv7 = and i64 %call, 4294967295
  %vtable8 = load ptr, ptr %file, align 8
  %vfn9 = getelementptr inbounds i8, ptr %vtable8, i64 16
  %2 = load ptr, ptr %vfn9, align 8
  %call10 = tail call noundef i64 %2(ptr noundef nonnull align 8 dereferenceable(8) %file, ptr noundef nonnull %call4, i64 noundef 1, i64 noundef %conv7)
  %mLineNumber = getelementptr inbounds i8, ptr %this, i64 124
  store i32 1, ptr %mLineNumber, align 4
  %3 = load ptr, ptr %mBuffer.i, align 8
  %4 = load i32, ptr %mFileSize.i, align 8
  %idxprom = zext i32 %4 to i64
  %arrayidx = getelementptr inbounds i8, ptr %3, i64 %idxprom
  store i8 0, ptr %arrayidx, align 1
  %5 = load ptr, ptr %mBuffer.i, align 8
  tail call void @_ZN6Assimp14CommentRemover18RemoveLineCommentsEPKcPcc(ptr noundef nonnull @.str.7, ptr noundef %5, i8 noundef signext 32)
  ret void
}